target datalayout = "e-m:e-p270:32:32-p271:32:32-p272:64:64-i64:64-i128:128-f80:128-n8:16:32:64-S128"
target triple = "x86_64-pc-linux-gnu"

%struct.ThreadList = type { ptr }
%struct.ThreadNode = type { ptr, i16, i32, ptr, i32, i32, %struct.StepRequest, %struct.InvokeRequest, ptr, %struct.CoLocatedEventInfo_, ptr, ptr, i64, ptr }
%struct.StepRequest = type { i32, i32, i8, i8, i8, i32, i32, ptr, ptr, i32, ptr, ptr, ptr, ptr }
%struct.InvokeRequest = type { i8, i8, i8, i8, i32, i8, i8, ptr, ptr, ptr, ptr, i32, ptr, %union.jvalue, ptr }
%union.jvalue = type { i64 }
%struct.CoLocatedEventInfo_ = type { i32, ptr, ptr, i64 }
%struct.BackendGlobalData = type <{ ptr, ptr, i8, i8, i8, i8, i8, i8, i8, i8, i8, [3 x i8], i32, ptr, ptr, ptr, ptr, ptr, ptr, ptr, ptr, ptr, ptr, ptr, ptr, ptr, i32, %struct.jvmtiCapabilities, i8, [3 x i8], %struct.jvmtiEventCallbacks, ptr, ptr, ptr, ptr, ptr, ptr, ptr, i32, [4 x i8], ptr, i64, i32, [4 x i8], ptr, i32, i32, i8, i8, [6 x i8] }>
%struct.jvmtiCapabilities = type { i64, i64 }
%struct.jvmtiEventCallbacks = type { ptr, ptr, ptr, ptr, ptr, ptr, ptr, ptr, ptr, ptr, ptr, ptr, ptr, ptr, ptr, ptr, ptr, ptr, ptr, ptr, ptr, ptr, ptr, ptr, ptr, ptr, ptr, ptr, ptr, ptr, ptr, ptr, ptr, ptr, ptr, ptr, ptr, ptr, ptr }
%struct.jvmtiInterface_1_ = type { ptr, ptr, ptr, ptr, ptr, ptr, ptr, ptr, ptr, ptr, ptr, ptr, ptr, ptr, ptr, ptr, ptr, ptr, ptr, ptr, ptr, ptr, ptr, ptr, ptr, ptr, ptr, ptr, ptr, ptr, ptr, ptr, ptr, ptr, ptr, ptr, ptr, ptr, ptr, ptr, ptr, ptr, ptr, ptr, ptr, ptr, ptr, ptr, ptr, ptr, ptr, ptr, ptr, ptr, ptr, ptr, ptr, ptr, ptr, ptr, ptr, ptr, ptr, ptr, ptr, ptr, ptr, ptr, ptr, ptr, ptr, ptr, ptr, ptr, ptr, ptr, ptr, ptr, ptr, ptr, ptr, ptr, ptr, ptr, ptr, ptr, ptr, ptr, ptr, ptr, ptr, ptr, ptr, ptr, ptr, ptr, ptr, ptr, ptr, ptr, ptr, ptr, ptr, ptr, ptr, ptr, ptr, ptr, ptr, ptr, ptr, ptr, ptr, ptr, ptr, ptr, ptr, ptr, ptr, ptr, ptr, ptr, ptr, ptr, ptr, ptr, ptr, ptr, ptr, ptr, ptr, ptr, ptr, ptr, ptr, ptr, ptr, ptr, ptr, ptr, ptr, ptr, ptr, ptr, ptr, ptr, ptr, ptr, ptr, ptr, ptr, ptr, ptr, ptr, ptr, ptr }

@runningThreads = internal global %struct.ThreadList zeroinitializer, align 8
@runningVThreads = internal global %struct.ThreadList zeroinitializer, align 8
@threadLock = internal global ptr null, align 8
@stderr = external global ptr, align 8
@.str.1 = private unnamed_addr constant [17 x i8] c"JDWP exit error \00", align 1
@.str.2 = private unnamed_addr constant [2 x i8] c"\0A\00", align 1
@.str.3 = private unnamed_addr constant [19 x i8] c"%s(%d): %s [%s:%d]\00", align 1
@.str.5 = private unnamed_addr constant [56 x i8] c"src/jdk.jdwp.agent/share/native/libjdwp/threadControl.c\00", align 1
@gdata = external global ptr, align 8
@.str.7 = private unnamed_addr constant [5 x i8] c"%s()\00", align 1
@.str.13 = private unnamed_addr constant [6 x i8] c"JVMTI\00", align 1
@.str.27 = private unnamed_addr constant [35 x i8] c"threadControl_onEventHandlerExit()\00", align 1
@.str.28 = private unnamed_addr constant [22 x i8] c"thread list corrupted\00", align 1
@.str.31 = private unnamed_addr constant [16 x i8] c"InterruptThread\00", align 1
@.str.32 = private unnamed_addr constant [13 x i8] c"node != NULL\00", align 1
@.str.34 = private unnamed_addr constant [11 x i8] c"StopThread\00", align 1
@numRunningVThreads = internal global i32 0, align 4

; Function Attrs: nounwind uwtable
define internal void @removeNode(ptr noundef %0) #0 {
  %2 = alloca ptr, align 8
  %3 = alloca ptr, align 8
  %4 = alloca ptr, align 8
  %5 = alloca ptr, align 8
  store ptr %0, ptr %2, align 8
  %6 = load ptr, ptr %2, align 8
  %7 = getelementptr inbounds %struct.ThreadNode, ptr %6, i32 0, i32 11
  %8 = load ptr, ptr %7, align 8
  store ptr %8, ptr %3, align 8
  %9 = load ptr, ptr %2, align 8
  %10 = getelementptr inbounds %struct.ThreadNode, ptr %9, i32 0, i32 10
  %11 = load ptr, ptr %10, align 8
  store ptr %11, ptr %4, align 8
  %12 = load ptr, ptr %2, align 8
  %13 = getelementptr inbounds %struct.ThreadNode, ptr %12, i32 0, i32 13
  %14 = load ptr, ptr %13, align 8
  store ptr %14, ptr %5, align 8
  %15 = load ptr, ptr %3, align 8
  %16 = icmp ne ptr %15, null
  br i1 %16, label %17, label %21

17:                                               ; preds = %1
  %18 = load ptr, ptr %4, align 8
  %19 = load ptr, ptr %3, align 8
  %20 = getelementptr inbounds %struct.ThreadNode, ptr %19, i32 0, i32 10
  store ptr %18, ptr %20, align 8
  br label %21

21:                                               ; preds = %17, %1
  %22 = load ptr, ptr %4, align 8
  %23 = icmp ne ptr %22, null
  br i1 %23, label %24, label %28

24:                                               ; preds = %21
  %25 = load ptr, ptr %3, align 8
  %26 = load ptr, ptr %4, align 8
  %27 = getelementptr inbounds %struct.ThreadNode, ptr %26, i32 0, i32 11
  store ptr %25, ptr %27, align 8
  br label %28

28:                                               ; preds = %24, %21
  %29 = load ptr, ptr %3, align 8
  %30 = icmp eq ptr %29, null
  br i1 %30, label %31, label %35

31:                                               ; preds = %28
  %32 = load ptr, ptr %4, align 8
  %33 = load ptr, ptr %5, align 8
  %34 = getelementptr inbounds %struct.ThreadList, ptr %33, i32 0, i32 0
  store ptr %32, ptr %34, align 8
  br label %35

35:                                               ; preds = %31, %28
  %36 = load ptr, ptr %2, align 8
  %37 = getelementptr inbounds %struct.ThreadNode, ptr %36, i32 0, i32 10
  store ptr null, ptr %37, align 8
  %38 = load ptr, ptr %2, align 8
  %39 = getelementptr inbounds %struct.ThreadNode, ptr %38, i32 0, i32 11
  store ptr null, ptr %39, align 8
  %40 = load ptr, ptr %2, align 8
  %41 = getelementptr inbounds %struct.ThreadNode, ptr %40, i32 0, i32 13
  store ptr null, ptr %41, align 8
  %42 = load ptr, ptr %5, align 8
  %43 = icmp eq ptr %42, @runningVThreads
  br i1 %43, label %44, label %47

44:                                               ; preds = %35
  %45 = load i32, ptr @numRunningVThreads, align 4
  %46 = add nsw i32 %45, -1
  store i32 %46, ptr @numRunningVThreads, align 4
  br label %47

47:                                               ; preds = %44, %35
  ret void
}

; Function Attrs: nounwind uwtable
define internal void @doPendingTasks(ptr noundef %0, ptr noundef %1, i32 noundef %2, ptr noundef %3) #0 {
  %5 = alloca ptr, align 8
  %6 = alloca ptr, align 8
  %7 = alloca i32, align 4
  %8 = alloca ptr, align 8
  store ptr %0, ptr %5, align 8
  store ptr %1, ptr %6, align 8
  store i32 %2, ptr %7, align 4
  store ptr %3, ptr %8, align 8
  %9 = load i32, ptr %7, align 4
  %10 = icmp ne i32 %9, 0
  br i1 %10, label %11, label %31

11:                                               ; preds = %4
  %12 = load ptr, ptr @gdata, align 8
  %13 = getelementptr inbounds %struct.BackendGlobalData, ptr %12, i32 0, i32 38
  %14 = load i32, ptr %13, align 8
  %15 = and i32 %14, 4
  %16 = icmp ne i32 %15, 0
  br i1 %16, label %17, label %18

17:                                               ; preds = %11
  call void @log_message_begin(ptr noundef @.str.13, ptr noundef @.str.5, i32 noundef 2126)
  call void (ptr, ...) @log_message_end(ptr noundef @.str.7, ptr noundef @.str.31)
  br label %19

18:                                               ; preds = %11
  br label %19

19:                                               ; preds = %18, %17
  %20 = load ptr, ptr @gdata, align 8
  %21 = getelementptr inbounds %struct.BackendGlobalData, ptr %20, i32 0, i32 0
  %22 = load ptr, ptr %21, align 8
  %23 = load ptr, ptr %22, align 8
  %24 = getelementptr inbounds %struct.jvmtiInterface_1_, ptr %23, i32 0, i32 7
  %25 = load ptr, ptr %24, align 8
  %26 = load ptr, ptr @gdata, align 8
  %27 = getelementptr inbounds %struct.BackendGlobalData, ptr %26, i32 0, i32 0
  %28 = load ptr, ptr %27, align 8
  %29 = load ptr, ptr %6, align 8
  %30 = call i32 %25(ptr noundef %28, ptr noundef %29)
  br label %31

31:                                               ; preds = %19, %4
  %32 = load ptr, ptr %8, align 8
  %33 = icmp ne ptr %32, null
  br i1 %33, label %34, label %55

34:                                               ; preds = %31
  %35 = load ptr, ptr @gdata, align 8
  %36 = getelementptr inbounds %struct.BackendGlobalData, ptr %35, i32 0, i32 38
  %37 = load i32, ptr %36, align 8
  %38 = and i32 %37, 4
  %39 = icmp ne i32 %38, 0
  br i1 %39, label %40, label %41

40:                                               ; preds = %34
  call void @log_message_begin(ptr noundef @.str.13, ptr noundef @.str.5, i32 noundef 2134)
  call void (ptr, ...) @log_message_end(ptr noundef @.str.7, ptr noundef @.str.34)
  br label %42

41:                                               ; preds = %34
  br label %42

42:                                               ; preds = %41, %40
  %43 = load ptr, ptr @gdata, align 8
  %44 = getelementptr inbounds %struct.BackendGlobalData, ptr %43, i32 0, i32 0
  %45 = load ptr, ptr %44, align 8
  %46 = load ptr, ptr %45, align 8
  %47 = getelementptr inbounds %struct.jvmtiInterface_1_, ptr %46, i32 0, i32 6
  %48 = load ptr, ptr %47, align 8
  %49 = load ptr, ptr @gdata, align 8
  %50 = getelementptr inbounds %struct.BackendGlobalData, ptr %49, i32 0, i32 0
  %51 = load ptr, ptr %50, align 8
  %52 = load ptr, ptr %6, align 8
  %53 = load ptr, ptr %8, align 8
  %54 = call i32 %48(ptr noundef %51, ptr noundef %52, ptr noundef %53)
  br label %55

55:                                               ; preds = %42, %31
  ret void
}

; Function Attrs: nounwind uwtable
define internal void @removeThread(ptr noundef %0, ptr noundef %1) #0 {
  %3 = alloca ptr, align 8
  %4 = alloca ptr, align 8
  store ptr %0, ptr %3, align 8
  store ptr %1, ptr %4, align 8
  br label %5

5:                                                ; preds = %2
  %6 = load ptr, ptr @gdata, align 8
  %7 = icmp ne ptr %6, null
  br i1 %7, label %8, label %18

8:                                                ; preds = %5
  %9 = load ptr, ptr @gdata, align 8
  %10 = getelementptr inbounds %struct.BackendGlobalData, ptr %9, i32 0, i32 3
  %11 = load i8, ptr %10, align 1
  %12 = zext i8 %11 to i32
  %13 = icmp ne i32 %12, 0
  br i1 %13, label %14, label %18

14:                                               ; preds = %8
  %15 = load ptr, ptr %4, align 8
  %16 = icmp ne ptr %15, null
  br i1 %16, label %18, label %17

17:                                               ; preds = %14
  call void @jdiAssertionFailed(ptr noundef @.str.5, i32 noundef 476, ptr noundef @.str.32)
  br label %18

18:                                               ; preds = %17, %14, %8, %5
  br label %19

19:                                               ; preds = %18
  %20 = load ptr, ptr %4, align 8
  call void @removeNode(ptr noundef %20)
  %21 = load ptr, ptr %3, align 8
  %22 = load ptr, ptr %4, align 8
  call void @clearThread(ptr noundef %21, ptr noundef %22)
  ret void
}

; Function Attrs: nounwind uwtable
define internal ptr @findRunningThread(ptr noundef %0) #0 {
  %2 = alloca ptr, align 8
  %3 = alloca ptr, align 8
  store ptr %0, ptr %2, align 8
  %4 = load ptr, ptr %2, align 8
  %5 = call zeroext i8 @isVThread(ptr noundef %4)
  %6 = icmp ne i8 %5, 0
  br i1 %6, label %7, label %10

7:                                                ; preds = %1
  %8 = load ptr, ptr %2, align 8
  %9 = call ptr @findThread(ptr noundef @runningVThreads, ptr noundef %8)
  store ptr %9, ptr %3, align 8
  br label %13

10:                                               ; preds = %1
  %11 = load ptr, ptr %2, align 8
  %12 = call ptr @findThread(ptr noundef @runningThreads, ptr noundef %11)
  store ptr %12, ptr %3, align 8
  br label %13

13:                                               ; preds = %10, %7
  %14 = load ptr, ptr %3, align 8
  ret ptr %14
}

; Function Attrs: nounwind uwtable
define hidden void @threadControl_onEventHandlerExit(i32 noundef %0, ptr noundef %1, ptr noundef %2) #0 {
  %4 = alloca i32, align 4
  %5 = alloca ptr, align 8
  %6 = alloca ptr, align 8
  %7 = alloca ptr, align 8
  %8 = alloca ptr, align 8
  %9 = alloca i32, align 4
  %10 = alloca ptr, align 8
  %11 = alloca ptr, align 8
  store i32 %0, ptr %4, align 4
  store ptr %1, ptr %5, align 8
  store ptr %2, ptr %6, align 8
  %12 = call ptr @getEnv()
  store ptr %12, ptr %8, align 8
  %13 = load ptr, ptr %5, align 8
  call void @log_debugee_location(ptr noundef @.str.27, ptr noundef %13, ptr noundef null, i64 noundef 0)
  %14 = load i32, ptr %4, align 4
  %15 = icmp eq i32 %14, 6
  br i1 %15, label %16, label %29

16:                                               ; preds = %3
  call void @eventHandler_lock()
  %17 = load ptr, ptr @threadLock, align 8
  call void @debugMonitorEnter(ptr noundef %17)
  %18 = load ptr, ptr %5, align 8
  %19 = call ptr @findRunningThread(ptr noundef %18)
  store ptr %19, ptr %7, align 8
  %20 = load ptr, ptr %7, align 8
  %21 = icmp eq ptr %20, null
  br i1 %21, label %22, label %25

22:                                               ; preds = %16
  %23 = load ptr, ptr @stderr, align 8
  %24 = call ptr @jvmtiErrorText(i32 noundef 201)
  call void (ptr, ptr, ptr, ptr, ...) @print_message(ptr noundef %23, ptr noundef @.str.1, ptr noundef @.str.2, ptr noundef @.str.3, ptr noundef %24, i32 noundef 201, ptr noundef @.str.28, ptr noundef @.str.5, i32 noundef 2156)
  call void @debugInit_exit(i32 noundef 201, ptr noundef @.str.28)
  br label %25

25:                                               ; preds = %22, %16
  %26 = load ptr, ptr %8, align 8
  %27 = load ptr, ptr %7, align 8
  call void @removeThread(ptr noundef %26, ptr noundef %27)
  store ptr null, ptr %7, align 8
  %28 = load ptr, ptr @threadLock, align 8
  call void @debugMonitorExit(ptr noundef %28)
  call void @eventHandler_unlock()
  br label %73

29:                                               ; preds = %3
  %30 = load ptr, ptr @threadLock, align 8
  call void @debugMonitorEnter(ptr noundef %30)
  %31 = load ptr, ptr %5, align 8
  %32 = call ptr @findRunningThread(ptr noundef %31)
  store ptr %32, ptr %7, align 8
  %33 = load ptr, ptr %7, align 8
  %34 = icmp eq ptr %33, null
  br i1 %34, label %35, label %38

35:                                               ; preds = %29
  %36 = load ptr, ptr @stderr, align 8
  %37 = call ptr @jvmtiErrorText(i32 noundef 201)
  call void (ptr, ptr, ptr, ptr, ...) @print_message(ptr noundef %36, ptr noundef @.str.1, ptr noundef @.str.2, ptr noundef @.str.3, ptr noundef %37, i32 noundef 201, ptr noundef @.str.28, ptr noundef @.str.5, i32 noundef 2166)
  call void @debugInit_exit(i32 noundef 201, ptr noundef @.str.28)
  br label %38

38:                                               ; preds = %35, %29
  %39 = load ptr, ptr %7, align 8
  %40 = getelementptr inbounds %struct.ThreadNode, ptr %39, i32 0, i32 1
  %41 = load i16, ptr %40, align 8
  %42 = lshr i16 %41, 1
  %43 = and i16 %42, 1
  %44 = zext i16 %43 to i32
  store i32 %44, ptr %9, align 4
  %45 = load ptr, ptr %7, align 8
  %46 = getelementptr inbounds %struct.ThreadNode, ptr %45, i32 0, i32 3
  %47 = load ptr, ptr %46, align 8
  store ptr %47, ptr %10, align 8
  %48 = load ptr, ptr %7, align 8
  %49 = getelementptr inbounds %struct.ThreadNode, ptr %48, i32 0, i32 0
  %50 = load ptr, ptr %49, align 8
  store ptr %50, ptr %11, align 8
  %51 = load ptr, ptr %7, align 8
  %52 = getelementptr inbounds %struct.ThreadNode, ptr %51, i32 0, i32 1
  %53 = load i16, ptr %52, align 8
  %54 = and i16 %53, -3
  %55 = or i16 %54, 0
  store i16 %55, ptr %52, align 8
  %56 = load ptr, ptr %7, align 8
  %57 = getelementptr inbounds %struct.ThreadNode, ptr %56, i32 0, i32 3
  store ptr null, ptr %57, align 8
  %58 = load ptr, ptr %6, align 8
  %59 = load ptr, ptr %7, align 8
  %60 = getelementptr inbounds %struct.ThreadNode, ptr %59, i32 0, i32 8
  store ptr %58, ptr %60, align 8
  %61 = load ptr, ptr %7, align 8
  %62 = getelementptr inbounds %struct.ThreadNode, ptr %61, i32 0, i32 2
  store i32 0, ptr %62, align 4
  store ptr null, ptr %7, align 8
  %63 = load ptr, ptr @threadLock, align 8
  call void @debugMonitorExit(ptr noundef %63)
  %64 = load ptr, ptr %8, align 8
  %65 = load ptr, ptr %11, align 8
  %66 = load i32, ptr %9, align 4
  %67 = load ptr, ptr %10, align 8
  call void @doPendingTasks(ptr noundef %64, ptr noundef %65, i32 noundef %66, ptr noundef %67)
  %68 = load ptr, ptr %10, align 8
  %69 = icmp ne ptr %68, null
  br i1 %69, label %70, label %72

70:                                               ; preds = %38
  %71 = load ptr, ptr %8, align 8
  call void @tossGlobalRef(ptr noundef %71, ptr noundef %10)
  br label %72

72:                                               ; preds = %70, %38
  br label %73

73:                                               ; preds = %72, %25
  ret void
}