; Function Attrs: nounwind uwtable
define hidden void @threadControl_onEventHandlerExit(i32 noundef %0, ptr noundef %1, ptr noundef %2) local_unnamed_addr #0 {
  %4 = alloca ptr, align 8
  %5 = tail call ptr @getEnv() #6
  tail call void @log_debugee_location(ptr noundef nonnull @.str.27, ptr noundef %1, ptr noundef null, i64 noundef 0) #6
  %6 = icmp eq i32 %0, 6
  br i1 %6, label %7, label %37

7:                                                ; preds = %3
  tail call void @eventHandler_lock() #6
  %8 = load ptr, ptr @threadLock, align 8
  tail call void @debugMonitorEnter(ptr noundef %8) #6
  %9 = tail call zeroext i8 @isVThread(ptr noundef %1) #6
  %.not.i = icmp eq i8 %9, 0
  %runningThreads.runningVThreads.i = select i1 %.not.i, ptr @runningThreads, ptr @runningVThreads
  %10 = tail call fastcc ptr @findThread(ptr noundef nonnull %runningThreads.runningVThreads.i, ptr noundef %1)
  %11 = icmp eq ptr %10, null
  br i1 %11, label %.split20, label %.split

.split:                                           ; preds = %7
  %12 = getelementptr inbounds i8, ptr %10, i64 240
  %13 = load ptr, ptr %12, align 8
  %14 = getelementptr inbounds i8, ptr %10, i64 232
  %15 = load ptr, ptr %14, align 8
  %16 = getelementptr inbounds i8, ptr %10, i64 256
  %17 = load ptr, ptr %16, align 8
  %.not.i.i = icmp eq ptr %13, null
  br i1 %.not.i.i, label %20, label %18

18:                                               ; preds = %.split
  %19 = getelementptr inbounds i8, ptr %13, i64 232
  store ptr %15, ptr %19, align 8
  br label %20

20:                                               ; preds = %18, %.split
  %.not17.i.i = icmp eq ptr %15, null
  br i1 %.not17.i.i, label %23, label %21

21:                                               ; preds = %20
  %22 = getelementptr inbounds i8, ptr %15, i64 240
  store ptr %13, ptr %22, align 8
  br label %23

23:                                               ; preds = %21, %20
  br i1 %.not.i.i, label %24, label %25

24:                                               ; preds = %23
  store ptr %15, ptr %17, align 8
  br label %25

25:                                               ; preds = %24, %23
  store ptr null, ptr %16, align 8
  %26 = icmp eq ptr %17, @runningVThreads
  tail call void @llvm.memset.p0.i64(ptr noundef nonnull align 8 dereferenceable(16) %14, i8 0, i64 16, i1 false)
  br i1 %26, label %27, label %removeThread.exit

27:                                               ; preds = %25
  %28 = load i32, ptr @numRunningVThreads, align 4
  %29 = add nsw i32 %28, -1
  store i32 %29, ptr @numRunningVThreads, align 4
  br label %removeThread.exit

.split20:                                         ; preds = %7
  %30 = load ptr, ptr @stderr, align 8
  %31 = tail call ptr @jvmtiErrorText(i32 noundef 201) #6
  tail call void (ptr, ptr, ptr, ptr, ...) @print_message(ptr noundef %30, ptr noundef nonnull @.str.1, ptr noundef nonnull @.str.2, ptr noundef nonnull @.str.3, ptr noundef %31, i32 noundef 201, ptr noundef nonnull @.str.28, ptr noundef nonnull @.str.5, i32 noundef 2156) #6
  tail call void @debugInit_exit(i32 noundef 201, ptr noundef nonnull @.str.28) #6
  %32 = load ptr, ptr @gdata, align 8, !nonnull !19, !noundef !19
  %33 = getelementptr inbounds i8, ptr %32, i64 17
  %34 = load i8, ptr %33, align 1
  %35 = icmp ne i8 %34, 0
  tail call void @llvm.assume(i1 %35)
  tail call void @jdiAssertionFailed(ptr noundef nonnull @.str.5, i32 noundef 476, ptr noundef nonnull @.str.32) #6
  unreachable

removeThread.exit:                                ; preds = %27, %25
  tail call fastcc void @clearThread(ptr noundef %5, ptr noundef nonnull %10)
  %36 = load ptr, ptr @threadLock, align 8
  tail call void @debugMonitorExit(ptr noundef %36) #6
  tail call void @eventHandler_unlock() #6
  br label %doPendingTasks.exit.thread

37:                                               ; preds = %3
  %38 = load ptr, ptr @threadLock, align 8
  tail call void @debugMonitorEnter(ptr noundef %38) #6
  %39 = tail call zeroext i8 @isVThread(ptr noundef %1) #6
  %.not.i27 = icmp eq i8 %39, 0
  %runningThreads.runningVThreads.i28 = select i1 %.not.i27, ptr @runningThreads, ptr @runningVThreads
  %40 = tail call fastcc ptr @findThread(ptr noundef nonnull %runningThreads.runningVThreads.i28, ptr noundef %1)
  %41 = icmp eq ptr %40, null
  br i1 %41, label %42, label %45

42:                                               ; preds = %37
  %43 = load ptr, ptr @stderr, align 8
  %44 = tail call ptr @jvmtiErrorText(i32 noundef 201) #6
  tail call void (ptr, ptr, ptr, ptr, ...) @print_message(ptr noundef %43, ptr noundef nonnull @.str.1, ptr noundef nonnull @.str.2, ptr noundef nonnull @.str.3, ptr noundef %44, i32 noundef 201, ptr noundef nonnull @.str.28, ptr noundef nonnull @.str.5, i32 noundef 2166) #6
  tail call void @debugInit_exit(i32 noundef 201, ptr noundef nonnull @.str.28) #6
  br label %45

45:                                               ; preds = %42, %37
  %46 = getelementptr inbounds i8, ptr %40, i64 8
  %47 = load i16, ptr %46, align 8
  %48 = getelementptr inbounds i8, ptr %40, i64 16
  %49 = load ptr, ptr %48, align 8
  store ptr %49, ptr %4, align 8
  %50 = load ptr, ptr %40, align 8
  %51 = and i16 %47, -3
  store i16 %51, ptr %46, align 8
  store ptr null, ptr %48, align 8
  %52 = getelementptr inbounds i8, ptr %40, i64 192
  store ptr %2, ptr %52, align 8
  %53 = getelementptr inbounds i8, ptr %40, i64 12
  store i32 0, ptr %53, align 4
  %54 = load ptr, ptr @threadLock, align 8
  tail call void @debugMonitorExit(ptr noundef %54) #6
  %55 = and i16 %47, 2
  %.not.i29 = icmp eq i16 %55, 0
  br i1 %.not.i29, label %69, label %56

56:                                               ; preds = %45
  %57 = load ptr, ptr @gdata, align 8
  %58 = getelementptr inbounds i8, ptr %57, i64 528
  %59 = load i32, ptr %58, align 8
  %60 = and i32 %59, 4
  %.not4.i = icmp eq i32 %60, 0
  br i1 %.not4.i, label %62, label %61

61:                                               ; preds = %56
  tail call void @log_message_begin(ptr noundef nonnull @.str.13, ptr noundef nonnull @.str.5, i32 noundef 2126) #6
  tail call void (ptr, ...) @log_message_end(ptr noundef nonnull @.str.7, ptr noundef nonnull @.str.31) #6
  %.pre.i = load ptr, ptr @gdata, align 8
  br label %62

62:                                               ; preds = %61, %56
  %63 = phi ptr [ %57, %56 ], [ %.pre.i, %61 ]
  %64 = load ptr, ptr %63, align 8
  %65 = load ptr, ptr %64, align 8
  %66 = getelementptr inbounds i8, ptr %65, i64 56
  %67 = load ptr, ptr %66, align 8
  %68 = tail call i32 %67(ptr noundef nonnull %64, ptr noundef %50) #6
  br label %69

69:                                               ; preds = %62, %45
  %.not5.i = icmp eq ptr %49, null
  br i1 %.not5.i, label %doPendingTasks.exit.thread, label %70

70:                                               ; preds = %69
  %71 = load ptr, ptr @gdata, align 8
  %72 = getelementptr inbounds i8, ptr %71, i64 528
  %73 = load i32, ptr %72, align 8
  %74 = and i32 %73, 4
  %.not6.i = icmp eq i32 %74, 0
  br i1 %.not6.i, label %76, label %75

75:                                               ; preds = %70
  tail call void @log_message_begin(ptr noundef nonnull @.str.13, ptr noundef nonnull @.str.5, i32 noundef 2134) #6
  tail call void (ptr, ...) @log_message_end(ptr noundef nonnull @.str.7, ptr noundef nonnull @.str.34) #6
  %.pre1.i = load ptr, ptr @gdata, align 8
  br label %76

76:                                               ; preds = %75, %70
  %77 = phi ptr [ %71, %70 ], [ %.pre1.i, %75 ]
  %78 = load ptr, ptr %77, align 8
  %79 = load ptr, ptr %78, align 8
  %80 = getelementptr inbounds i8, ptr %79, i64 48
  %81 = load ptr, ptr %80, align 8
  %82 = tail call i32 %81(ptr noundef nonnull %78, ptr noundef %50, ptr noundef nonnull %49) #6
  call void @tossGlobalRef(ptr noundef %5, ptr noundef nonnull %4) #6
  br label %doPendingTasks.exit.thread

doPendingTasks.exit.thread:                       ; preds = %69, %76, %removeThread.exit
  ret void
}